; Function Attrs: mustprogress uwtable
define hidden noundef range(i32 -1, 1) i32 @_ZN4ncnn3Net14load_param_binEPKc(ptr noundef nonnull align 8 dereferenceable(80) %0, ptr noundef %1) local_unnamed_addr #2 align 2 personality ptr @__gxx_personality_v0 {
  %3 = alloca %"class.ncnn::DataReaderFromStdio", align 8
  %4 = tail call noalias ptr @fopen(ptr noundef %1, ptr noundef nonnull @.str.43)
  %.not = icmp eq ptr %4, null
  br i1 %.not, label %5, label %9

5:                                                ; preds = %2
  %6 = load ptr, ptr @stderr, align 8, !tbaa !157
  %7 = tail call i32 (ptr, ptr, ...) @fprintf(ptr noundef %6, ptr noundef nonnull @.str.44, ptr noundef %1) #33
  %8 = load ptr, ptr @stderr, align 8, !tbaa !157
  %fputc = tail call i32 @fputc(i32 10, ptr %8)
  br label %14

9:                                                ; preds = %2
  call void @llvm.lifetime.start.p0(i64 16, ptr nonnull %3) #26
  call void @_ZN4ncnn19DataReaderFromStdioC1EP8_IO_FILE(ptr noundef nonnull align 8 dereferenceable(16) %3, ptr noundef nonnull %4)
  %10 = invoke noundef i32 @_ZN4ncnn3Net14load_param_binERKNS_10DataReaderE(ptr noundef nonnull align 8 dereferenceable(80) %0, ptr noundef nonnull align 8 dereferenceable(8) %3)
          to label %_ZN4ncnn3Net14load_param_binEP8_IO_FILE.exit unwind label %11

11:                                               ; preds = %9
  %12 = landingpad { ptr, i32 }
          cleanup
  call void @_ZN4ncnn19DataReaderFromStdioD1Ev(ptr noundef nonnull align 8 dereferenceable(16) %3) #26
  call void @llvm.lifetime.end.p0(i64 16, ptr nonnull %3) #26
  resume { ptr, i32 } %12

_ZN4ncnn3Net14load_param_binEP8_IO_FILE.exit:     ; preds = %9
  call void @_ZN4ncnn19DataReaderFromStdioD1Ev(ptr noundef nonnull align 8 dereferenceable(16) %3) #26
  call void @llvm.lifetime.end.p0(i64 16, ptr nonnull %3) #26
  %13 = call i32 @fclose(ptr noundef nonnull %4)
  br label %14

14:                                               ; preds = %_ZN4ncnn3Net14load_param_binEP8_IO_FILE.exit, %5
  %.0 = phi i32 [ %10, %_ZN4ncnn3Net14load_param_binEP8_IO_FILE.exit ], [ -1, %5 ]
  ret i32 %.0
}